target datalayout = "e-m:e-p270:32:32-p271:32:32-p272:64:64-i64:64-i128:128-f80:128-n8:16:32:64-S128"
target triple = "x86_64-pc-linux-gnu"

%struct.ldap_conv_info_t = type { i32, ptr, i32, ptr, ptr, i8, i32, i8, i32 }
%struct._asn1_ctx_t = type { i32, i32, i8, ptr, ptr, ptr, ptr, ptr, %struct.anon.2, %struct.anon.5, %struct.anon.6, ptr }
%struct.anon.2 = type { i32, i8, i8, i8, ptr, ptr, i32, i32, ptr, ptr, ptr, %union.anon }
%union.anon = type { %struct.anon.3 }
%struct.anon.3 = type { ptr }
%struct.anon.5 = type { ptr, ptr, ptr }
%struct.anon.6 = type { i32, i8, ptr, i32, i32, ptr, ptr, ptr, %union.anon.7 }
%union.anon.7 = type { %struct.anon.8 }
%struct.anon.8 = type { ptr }

@hf_ldap_LDAPMessage_PDU = internal global i32 0, align 4
@ett_ldap_LDAPMessage = internal global i32 0, align 4
@attributedesc_string = internal global ptr null, align 8

; Function Attrs: null_pointer_is_valid sspstrong uwtable
define internal i32 @dissect_ldap_LDAPMessage(i1 noundef zeroext %0, ptr noundef %1, i32 noundef %2, ptr noundef %3, ptr noundef %4, i32 noundef %5) #0 {
  %7 = alloca i8, align 1
  %8 = alloca ptr, align 8
  %9 = alloca i32, align 4
  %10 = alloca ptr, align 8
  %11 = alloca ptr, align 8
  %12 = alloca i32, align 4
  %13 = zext i1 %0 to i8
  store i8 %13, ptr %7, align 1
  store ptr %1, ptr %8, align 8
  store i32 %2, ptr %9, align 4
  store ptr %3, ptr %10, align 8
  store ptr %4, ptr %11, align 8
  store i32 %5, ptr %12, align 4
  %14 = load i8, ptr %7, align 1, !range !6, !noundef !7
  %15 = trunc i8 %14 to i1
  %16 = load ptr, ptr %10, align 8
  %17 = load ptr, ptr %11, align 8
  %18 = load ptr, ptr %8, align 8
  %19 = load i32, ptr %9, align 4
  %20 = load i32, ptr %12, align 4
  %21 = load i32, ptr @ett_ldap_LDAPMessage, align 4
  %22 = call i32 @dissect_ber_sequence(i1 noundef zeroext %15, ptr noundef %16, ptr noundef %17, ptr noundef %18, i32 noundef %19, ptr noundef @LDAPMessage_sequence, i32 noundef %20, i32 noundef %21)
  store i32 %22, ptr %9, align 4
  %23 = load i32, ptr %9, align 4
  ret i32 %23
}

; Function Attrs: null_pointer_is_valid sspstrong uwtable
define internal i32 @dissect_LDAPMessage_PDU(ptr noundef %0, ptr noundef %1, ptr noundef %2, ptr noundef %3) #0 {
  %5 = alloca ptr, align 8
  %6 = alloca ptr, align 8
  %7 = alloca ptr, align 8
  %8 = alloca ptr, align 8
  %9 = alloca i32, align 4
  %10 = alloca %struct._asn1_ctx_t, align 8
  store ptr %0, ptr %5, align 8
  store ptr %1, ptr %6, align 8
  store ptr %2, ptr %7, align 8
  store ptr %3, ptr %8, align 8
  call void @llvm.lifetime.start.p0(i64 4, ptr %9) #16
  store i32 0, ptr %9, align 4
  call void @llvm.lifetime.start.p0(i64 208, ptr %10) #16
  %11 = load ptr, ptr %6, align 8
  call void @asn1_ctx_init(ptr noundef %10, i32 noundef 0, i1 noundef zeroext true, ptr noundef %11)
  %12 = load ptr, ptr %8, align 8
  %13 = getelementptr inbounds nuw %struct._asn1_ctx_t, ptr %10, i32 0, i32 7
  store ptr %12, ptr %13, align 8
  %14 = load ptr, ptr %5, align 8
  %15 = load i32, ptr %9, align 4
  %16 = load ptr, ptr %7, align 8
  %17 = load i32, ptr @hf_ldap_LDAPMessage_PDU, align 4
  %18 = call i32 @dissect_ldap_LDAPMessage(i1 noundef zeroext false, ptr noundef %14, i32 noundef %15, ptr noundef %10, ptr noundef %16, i32 noundef %17)
  store i32 %18, ptr %9, align 4
  %19 = load i32, ptr %9, align 4
  call void @llvm.lifetime.end.p0(i64 208, ptr %10) #16
  call void @llvm.lifetime.end.p0(i64 4, ptr %9) #16
  ret i32 %19
}

; Function Attrs: null_pointer_is_valid sspstrong uwtable
define internal void @dissect_ldap_payload(ptr noundef %0, ptr noundef %1, ptr noundef %2, ptr noundef %3, i1 noundef zeroext %4) #0 {
  %6 = alloca ptr, align 8
  %7 = alloca ptr, align 8
  %8 = alloca ptr, align 8
  %9 = alloca ptr, align 8
  %10 = alloca i8, align 1
  %11 = alloca i32, align 4
  %12 = alloca i32, align 4
  %13 = alloca i32, align 4
  %14 = alloca i32, align 4
  %15 = alloca i32, align 4
  %16 = alloca i32, align 4
  %17 = alloca ptr, align 8
  %18 = alloca i8, align 1
  %19 = alloca i8, align 1
  %20 = alloca i8, align 1
  %21 = alloca i32, align 4
  %22 = alloca i32, align 4
  store ptr %0, ptr %6, align 8
  store ptr %1, ptr %7, align 8
  store ptr %2, ptr %8, align 8
  store ptr %3, ptr %9, align 8
  %23 = zext i1 %4 to i8
  store i8 %23, ptr %10, align 1
  call void @llvm.lifetime.start.p0(i64 4, ptr %11) #16
  store i32 0, ptr %11, align 4
  call void @llvm.lifetime.start.p0(i64 4, ptr %12) #16
  call void @llvm.lifetime.start.p0(i64 4, ptr %13) #16
  store i32 0, ptr %13, align 4
  call void @llvm.lifetime.start.p0(i64 4, ptr %14) #16
  store i32 0, ptr %14, align 4
  call void @llvm.lifetime.start.p0(i64 4, ptr %15) #16
  store i32 0, ptr %15, align 4
  call void @llvm.lifetime.start.p0(i64 4, ptr %16) #16
  store i32 0, ptr %16, align 4
  call void @llvm.lifetime.start.p0(i64 8, ptr %17) #16
  store ptr null, ptr %17, align 8
  call void @llvm.lifetime.start.p0(i64 1, ptr %18) #16
  call void @llvm.lifetime.start.p0(i64 1, ptr %19) #16
  call void @llvm.lifetime.start.p0(i64 1, ptr %20) #16
  store i8 0, ptr %20, align 1
  call void @llvm.lifetime.start.p0(i64 4, ptr %21) #16
  store ptr null, ptr @attributedesc_string, align 8
  br label %24

24:                                               ; preds = %98, %5
  %25 = load ptr, ptr %6, align 8
  %26 = load i32, ptr %11, align 4
  %27 = call i32 @tvb_ensure_captured_length_remaining(ptr noundef %25, i32 noundef %26)
  store i32 %27, ptr %12, align 4
  %28 = load i32, ptr %12, align 4
  %29 = icmp ult i32 %28, 6
  br i1 %29, label %30, label %31

30:                                               ; preds = %24
  store i32 1, ptr %22, align 4
  br label %103

31:                                               ; preds = %24
  %32 = load ptr, ptr %6, align 8
  %33 = load i32, ptr %11, align 4
  %34 = call i32 @get_ber_identifier(ptr noundef %32, i32 noundef %33, ptr noundef %18, ptr noundef %19, ptr noundef %21)
  store i32 %34, ptr %14, align 4
  %35 = load ptr, ptr %6, align 8
  %36 = load i32, ptr %14, align 4
  %37 = call i32 @get_ber_length(ptr noundef %35, i32 noundef %36, ptr noundef %13, ptr noundef %20)
  store i32 %37, ptr %14, align 4
  %38 = load i32, ptr %13, align 4
  %39 = icmp ult i32 %38, 4
  br i1 %39, label %43, label %40

40:                                               ; preds = %31
  %41 = load i32, ptr %13, align 4
  %42 = icmp ugt i32 %41, 10000000
  br i1 %42, label %43, label %44

43:                                               ; preds = %40, %31
  store i32 1, ptr %22, align 4
  br label %103

44:                                               ; preds = %40
  %45 = load i8, ptr %18, align 1
  %46 = sext i8 %45 to i32
  %47 = icmp eq i32 %46, 0
  br i1 %47, label %48, label %66

48:                                               ; preds = %44
  %49 = load i32, ptr %21, align 4
  %50 = icmp eq i32 %49, 16
  br i1 %50, label %51, label %66

51:                                               ; preds = %48
  %52 = load i32, ptr %14, align 4
  %53 = load i32, ptr %11, align 4
  %54 = sub i32 %52, %53
  store i32 %54, ptr %15, align 4
  %55 = load i32, ptr %15, align 4
  %56 = load i32, ptr %13, align 4
  %57 = add i32 %56, %55
  store i32 %57, ptr %13, align 4
  %58 = load i32, ptr %13, align 4
  %59 = load i32, ptr %15, align 4
  %60 = icmp ult i32 %58, %59
  br i1 %60, label %61, label %65

61:                                               ; preds = %51
  %62 = load ptr, ptr %6, align 8
  %63 = load ptr, ptr %7, align 8
  %64 = load ptr, ptr %8, align 8
  call void @show_reported_bounds_error(ptr noundef %62, ptr noundef %63, ptr noundef %64)
  store i32 1, ptr %22, align 4
  br label %103

65:                                               ; preds = %51
  br label %68

66:                                               ; preds = %48, %44
  %67 = load i32, ptr %12, align 4
  store i32 %67, ptr %13, align 4
  br label %68

68:                                               ; preds = %66, %65
  %69 = load i32, ptr %12, align 4
  store i32 %69, ptr %16, align 4
  %70 = load i32, ptr %16, align 4
  %71 = load i32, ptr %13, align 4
  %72 = icmp ugt i32 %70, %71
  br i1 %72, label %73, label %75

73:                                               ; preds = %68
  %74 = load i32, ptr %13, align 4
  store i32 %74, ptr %16, align 4
  br label %75

75:                                               ; preds = %73, %68
  %76 = load ptr, ptr %6, align 8
  %77 = load i32, ptr %11, align 4
  %78 = load i32, ptr %16, align 4
  %79 = load i32, ptr %13, align 4
  %80 = call ptr @tvb_new_subset_length_caplen(ptr noundef %76, i32 noundef %77, i32 noundef %78, i32 noundef %79)
  store ptr %80, ptr %17, align 8
  %81 = load i8, ptr %10, align 1, !range !6, !noundef !7
  %82 = trunc i8 %81 to i1
  %83 = load ptr, ptr %9, align 8
  %84 = getelementptr inbounds nuw %struct.ldap_conv_info_t, ptr %83, i32 0, i32 5
  %85 = zext i1 %82 to i8
  store i8 %85, ptr %84, align 8
  %86 = load ptr, ptr %17, align 8
  %87 = load ptr, ptr %7, align 8
  %88 = load ptr, ptr %8, align 8
  %89 = load ptr, ptr %9, align 8
  %90 = call i32 @dissect_LDAPMessage_PDU(ptr noundef %86, ptr noundef %87, ptr noundef %88, ptr noundef %89)
  %91 = load i32, ptr %13, align 4
  %92 = load i32, ptr %11, align 4
  %93 = add i32 %92, %91
  store i32 %93, ptr %11, align 4
  %94 = load ptr, ptr %6, align 8
  %95 = load i32, ptr %11, align 4
  %96 = call i32 @tvb_reported_length_remaining(ptr noundef %94, i32 noundef %95)
  %97 = icmp sge i32 %96, 6
  br i1 %97, label %98, label %102

98:                                               ; preds = %75
  %99 = load ptr, ptr %6, align 8
  %100 = load i32, ptr %11, align 4
  %101 = call ptr @tvb_new_subset_remaining(ptr noundef %99, i32 noundef %100)
  store ptr %101, ptr %6, align 8
  store i32 0, ptr %11, align 4
  br label %24

102:                                              ; preds = %75
  store i32 0, ptr %22, align 4
  br label %103

103:                                              ; preds = %102, %61, %43, %30
  call void @llvm.lifetime.end.p0(i64 4, ptr %21) #16
  call void @llvm.lifetime.end.p0(i64 1, ptr %20) #16
  call void @llvm.lifetime.end.p0(i64 1, ptr %19) #16
  call void @llvm.lifetime.end.p0(i64 1, ptr %18) #16
  call void @llvm.lifetime.end.p0(i64 8, ptr %17) #16
  call void @llvm.lifetime.end.p0(i64 4, ptr %16) #16
  call void @llvm.lifetime.end.p0(i64 4, ptr %15) #16
  call void @llvm.lifetime.end.p0(i64 4, ptr %14) #16
  call void @llvm.lifetime.end.p0(i64 4, ptr %13) #16
  call void @llvm.lifetime.end.p0(i64 4, ptr %12) #16
  call void @llvm.lifetime.end.p0(i64 4, ptr %11) #16
  %104 = load i32, ptr %22, align 4
  switch i32 %104, label %106 [
    i32 0, label %105
    i32 1, label %105
  ]

105:                                              ; preds = %103, %103
  ret void

106:                                              ; preds = %103
  unreachable
}