; Function Attrs: null_pointer_is_valid sspstrong uwtable
define internal fastcc void @dissect_ldap_payload(ptr noundef %0, ptr noundef %1, ptr noundef %2, ptr noundef %3, i1 noundef zeroext %4) unnamed_addr #0 {
  %6 = alloca %struct._asn1_ctx_t, align 8
  %7 = alloca i32, align 4
  %8 = alloca i8, align 1
  %9 = alloca i8, align 1
  %10 = alloca i8, align 1
  %11 = alloca i32, align 4
  %12 = zext i1 %4 to i8
  call void @llvm.lifetime.start.p0(i64 4, ptr nonnull %7) #14
  store i32 0, ptr %7, align 4
  call void @llvm.lifetime.start.p0(i64 1, ptr nonnull %8) #14
  call void @llvm.lifetime.start.p0(i64 1, ptr nonnull %9) #14
  call void @llvm.lifetime.start.p0(i64 1, ptr nonnull %10) #14
  store i8 0, ptr %10, align 1
  call void @llvm.lifetime.start.p0(i64 4, ptr nonnull %11) #14
  store ptr null, ptr @attributedesc_string, align 8
  %13 = tail call i32 @tvb_ensure_captured_length_remaining(ptr noundef %0, i32 noundef 0)
  %14 = icmp ult i32 %13, 6
  br i1 %14, label %.loopexit, label %.lr.ph

.lr.ph:                                           ; preds = %5
  %15 = getelementptr inbounds nuw i8, ptr %3, i64 40
  %16 = getelementptr inbounds nuw i8, ptr %6, i64 48
  br label %17

17:                                               ; preds = %.lr.ph, %42
  %18 = phi i32 [ %13, %.lr.ph ], [ %44, %42 ]
  %.03339 = phi ptr [ %0, %.lr.ph ], [ %43, %42 ]
  %19 = call i32 @get_ber_identifier(ptr noundef %.03339, i32 noundef 0, ptr noundef nonnull %8, ptr noundef nonnull %9, ptr noundef nonnull %11)
  %20 = call i32 @get_ber_length(ptr noundef %.03339, i32 noundef %19, ptr noundef nonnull %7, ptr noundef nonnull %10)
  %21 = load i32, ptr %7, align 4
  %22 = add i32 %21, -10000001
  %or.cond = icmp ult i32 %22, -9999997
  br i1 %or.cond, label %.loopexit, label %23

23:                                               ; preds = %17
  %24 = load i8, ptr %8, align 1
  %25 = icmp eq i8 %24, 0
  %26 = load i32, ptr %11, align 4
  %27 = icmp eq i32 %26, 16
  %or.cond3 = select i1 %25, i1 %27, i1 false
  br i1 %or.cond3, label %28, label %32

28:                                               ; preds = %23
  %29 = add i32 %21, %20
  store i32 %29, ptr %7, align 4
  %30 = icmp ult i32 %29, %20
  br i1 %30, label %31, label %33

31:                                               ; preds = %28
  call void @show_reported_bounds_error(ptr noundef %.03339, ptr noundef %1, ptr noundef %2)
  br label %.loopexit

32:                                               ; preds = %23
  store i32 %18, ptr %7, align 4
  br label %33

33:                                               ; preds = %28, %32
  %34 = phi i32 [ %29, %28 ], [ %18, %32 ]
  %spec.select = call i32 @llvm.umin.i32(i32 %18, i32 %34)
  %35 = call ptr @tvb_new_subset_length_caplen(ptr noundef %.03339, i32 noundef 0, i32 noundef %spec.select, i32 noundef %34)
  store i8 %12, ptr %15, align 8
  call void @llvm.lifetime.start.p0(i64 208, ptr nonnull %6) #14
  call void @asn1_ctx_init(ptr noundef nonnull %6, i32 noundef 0, i1 noundef zeroext true, ptr noundef %1)
  store ptr %3, ptr %16, align 8
  %36 = load i32, ptr @hf_ldap_LDAPMessage_PDU, align 4
  %37 = load i32, ptr @ett_ldap_LDAPMessage, align 4
  %38 = call i32 @dissect_ber_sequence(i1 noundef zeroext false, ptr noundef nonnull %6, ptr noundef %2, ptr noundef %35, i32 noundef 0, ptr noundef nonnull @LDAPMessage_sequence, i32 noundef %36, i32 noundef %37)
  call void @llvm.lifetime.end.p0(i64 208, ptr nonnull %6) #14
  %39 = load i32, ptr %7, align 4
  %40 = call i32 @tvb_reported_length_remaining(ptr noundef %.03339, i32 noundef %39)
  %41 = icmp sgt i32 %40, 5
  br i1 %41, label %42, label %.loopexit

42:                                               ; preds = %33
  %43 = call ptr @tvb_new_subset_remaining(ptr noundef %.03339, i32 noundef %39)
  %44 = call i32 @tvb_ensure_captured_length_remaining(ptr noundef %43, i32 noundef 0)
  %45 = icmp ult i32 %44, 6
  br i1 %45, label %.loopexit, label %17

.loopexit:                                        ; preds = %42, %17, %33, %5, %31
  call void @llvm.lifetime.end.p0(i64 4, ptr nonnull %11) #14
  call void @llvm.lifetime.end.p0(i64 1, ptr nonnull %10) #14
  call void @llvm.lifetime.end.p0(i64 1, ptr nonnull %9) #14
  call void @llvm.lifetime.end.p0(i64 1, ptr nonnull %8) #14
  call void @llvm.lifetime.end.p0(i64 4, ptr nonnull %7) #14
  ret void
}